ARM GAS  /tmp/cca4GKR2.s 			page 1


   1              		.cpu cortex-m0
   2              		.arch armv6s-m
   3              		.fpu softvfp
   4              		.eabi_attribute 20, 1
   5              		.eabi_attribute 21, 1
   6              		.eabi_attribute 23, 3
   7              		.eabi_attribute 24, 1
   8              		.eabi_attribute 25, 1
   9              		.eabi_attribute 26, 1
  10              		.eabi_attribute 30, 1
  11              		.eabi_attribute 34, 0
  12              		.eabi_attribute 18, 4
  13              		.file	"i2c.c"
  14              		.text
  15              	.Ltext0:
  16              		.cfi_sections	.debug_frame
  17              		.file 1 "Core/Src/i2c.c"
  18              		.section	.text.MX_I2C1_Init,"ax",%progbits
  19              		.align	1
  20              		.global	MX_I2C1_Init
  21              		.syntax unified
  22              		.code	16
  23              		.thumb_func
  25              	MX_I2C1_Init:
  26              	.LFB40:
   1:Core/Src/i2c.c **** /* USER CODE BEGIN Header */
   2:Core/Src/i2c.c **** /**
   3:Core/Src/i2c.c ****   ******************************************************************************
   4:Core/Src/i2c.c ****   * @file    i2c.c
   5:Core/Src/i2c.c ****   * @brief   This file provides code for the configuration
   6:Core/Src/i2c.c ****   *          of the I2C instances.
   7:Core/Src/i2c.c ****   ******************************************************************************
   8:Core/Src/i2c.c ****   * @attention
   9:Core/Src/i2c.c ****   *
  10:Core/Src/i2c.c ****   * Copyright (c) 2024 STMicroelectronics.
  11:Core/Src/i2c.c ****   * All rights reserved.
  12:Core/Src/i2c.c ****   *
  13:Core/Src/i2c.c ****   * This software is licensed under terms that can be found in the LICENSE file
  14:Core/Src/i2c.c ****   * in the root directory of this software component.
  15:Core/Src/i2c.c ****   * If no LICENSE file comes with this software, it is provided AS-IS.
  16:Core/Src/i2c.c ****   *
  17:Core/Src/i2c.c ****   ******************************************************************************
  18:Core/Src/i2c.c ****   */
  19:Core/Src/i2c.c **** /* USER CODE END Header */
  20:Core/Src/i2c.c **** /* Includes ------------------------------------------------------------------*/
  21:Core/Src/i2c.c **** #include "i2c.h"
  22:Core/Src/i2c.c **** 
  23:Core/Src/i2c.c **** /* USER CODE BEGIN 0 */
  24:Core/Src/i2c.c **** 
  25:Core/Src/i2c.c **** /* USER CODE END 0 */
  26:Core/Src/i2c.c **** 
  27:Core/Src/i2c.c **** I2C_HandleTypeDef hi2c1;
  28:Core/Src/i2c.c **** 
  29:Core/Src/i2c.c **** /* I2C1 init function */
  30:Core/Src/i2c.c **** void MX_I2C1_Init(void)
  31:Core/Src/i2c.c **** {
  27              		.loc 1 31 1 view -0
ARM GAS  /tmp/cca4GKR2.s 			page 2


  28              		.cfi_startproc
  29              		@ args = 0, pretend = 0, frame = 0
  30              		@ frame_needed = 0, uses_anonymous_args = 0
  31 0000 10B5     		push	{r4, lr}
  32              	.LCFI0:
  33              		.cfi_def_cfa_offset 8
  34              		.cfi_offset 4, -8
  35              		.cfi_offset 14, -4
  32:Core/Src/i2c.c **** 
  33:Core/Src/i2c.c ****   /* USER CODE BEGIN I2C1_Init 0 */
  34:Core/Src/i2c.c **** 
  35:Core/Src/i2c.c ****   /* USER CODE END I2C1_Init 0 */
  36:Core/Src/i2c.c **** 
  37:Core/Src/i2c.c ****   /* USER CODE BEGIN I2C1_Init 1 */
  38:Core/Src/i2c.c **** 
  39:Core/Src/i2c.c ****   /* USER CODE END I2C1_Init 1 */
  40:Core/Src/i2c.c ****   hi2c1.Instance = I2C1;
  36              		.loc 1 40 3 view .LVU1
  37              		.loc 1 40 18 is_stmt 0 view .LVU2
  38 0002 1448     		ldr	r0, .L8
  39 0004 144B     		ldr	r3, .L8+4
  40 0006 0360     		str	r3, [r0]
  41:Core/Src/i2c.c ****   hi2c1.Init.Timing = 0x00201D2B;
  41              		.loc 1 41 3 is_stmt 1 view .LVU3
  42              		.loc 1 41 21 is_stmt 0 view .LVU4
  43 0008 144B     		ldr	r3, .L8+8
  44 000a 4360     		str	r3, [r0, #4]
  42:Core/Src/i2c.c ****   hi2c1.Init.OwnAddress1 = 0;
  45              		.loc 1 42 3 is_stmt 1 view .LVU5
  46              		.loc 1 42 26 is_stmt 0 view .LVU6
  47 000c 0023     		movs	r3, #0
  48 000e 8360     		str	r3, [r0, #8]
  43:Core/Src/i2c.c ****   hi2c1.Init.AddressingMode = I2C_ADDRESSINGMODE_7BIT;
  49              		.loc 1 43 3 is_stmt 1 view .LVU7
  50              		.loc 1 43 29 is_stmt 0 view .LVU8
  51 0010 0122     		movs	r2, #1
  52 0012 C260     		str	r2, [r0, #12]
  44:Core/Src/i2c.c ****   hi2c1.Init.DualAddressMode = I2C_DUALADDRESS_DISABLE;
  53              		.loc 1 44 3 is_stmt 1 view .LVU9
  54              		.loc 1 44 30 is_stmt 0 view .LVU10
  55 0014 0361     		str	r3, [r0, #16]
  45:Core/Src/i2c.c ****   hi2c1.Init.OwnAddress2 = 0;
  56              		.loc 1 45 3 is_stmt 1 view .LVU11
  57              		.loc 1 45 26 is_stmt 0 view .LVU12
  58 0016 4361     		str	r3, [r0, #20]
  46:Core/Src/i2c.c ****   hi2c1.Init.OwnAddress2Masks = I2C_OA2_NOMASK;
  59              		.loc 1 46 3 is_stmt 1 view .LVU13
  60              		.loc 1 46 31 is_stmt 0 view .LVU14
  61 0018 8361     		str	r3, [r0, #24]
  47:Core/Src/i2c.c ****   hi2c1.Init.GeneralCallMode = I2C_GENERALCALL_DISABLE;
  62              		.loc 1 47 3 is_stmt 1 view .LVU15
  63              		.loc 1 47 30 is_stmt 0 view .LVU16
  64 001a C361     		str	r3, [r0, #28]
  48:Core/Src/i2c.c ****   hi2c1.Init.NoStretchMode = I2C_NOSTRETCH_DISABLE;
  65              		.loc 1 48 3 is_stmt 1 view .LVU17
  66              		.loc 1 48 28 is_stmt 0 view .LVU18
  67 001c 0362     		str	r3, [r0, #32]
ARM GAS  /tmp/cca4GKR2.s 			page 3


  49:Core/Src/i2c.c ****   if (HAL_I2C_Init(&hi2c1) != HAL_OK)
  68              		.loc 1 49 3 is_stmt 1 view .LVU19
  69              		.loc 1 49 7 is_stmt 0 view .LVU20
  70 001e FFF7FEFF 		bl	HAL_I2C_Init
  71              	.LVL0:
  72              		.loc 1 49 6 discriminator 1 view .LVU21
  73 0022 0028     		cmp	r0, #0
  74 0024 0CD1     		bne	.L5
  75              	.L2:
  50:Core/Src/i2c.c ****   {
  51:Core/Src/i2c.c ****     Error_Handler();
  52:Core/Src/i2c.c ****   }
  53:Core/Src/i2c.c **** 
  54:Core/Src/i2c.c ****   /** Configure Analogue filter
  55:Core/Src/i2c.c ****   */
  56:Core/Src/i2c.c ****   if (HAL_I2CEx_ConfigAnalogFilter(&hi2c1, I2C_ANALOGFILTER_ENABLE) != HAL_OK)
  76              		.loc 1 56 3 is_stmt 1 view .LVU22
  77              		.loc 1 56 7 is_stmt 0 view .LVU23
  78 0026 0B48     		ldr	r0, .L8
  79 0028 0021     		movs	r1, #0
  80 002a FFF7FEFF 		bl	HAL_I2CEx_ConfigAnalogFilter
  81              	.LVL1:
  82              		.loc 1 56 6 discriminator 1 view .LVU24
  83 002e 0028     		cmp	r0, #0
  84 0030 09D1     		bne	.L6
  85              	.L3:
  57:Core/Src/i2c.c ****   {
  58:Core/Src/i2c.c ****     Error_Handler();
  59:Core/Src/i2c.c ****   }
  60:Core/Src/i2c.c **** 
  61:Core/Src/i2c.c ****   /** Configure Digital filter
  62:Core/Src/i2c.c ****   */
  63:Core/Src/i2c.c ****   if (HAL_I2CEx_ConfigDigitalFilter(&hi2c1, 0) != HAL_OK)
  86              		.loc 1 63 3 is_stmt 1 view .LVU25
  87              		.loc 1 63 7 is_stmt 0 view .LVU26
  88 0032 0848     		ldr	r0, .L8
  89 0034 0021     		movs	r1, #0
  90 0036 FFF7FEFF 		bl	HAL_I2CEx_ConfigDigitalFilter
  91              	.LVL2:
  92              		.loc 1 63 6 discriminator 1 view .LVU27
  93 003a 0028     		cmp	r0, #0
  94 003c 06D1     		bne	.L7
  95              	.L1:
  64:Core/Src/i2c.c ****   {
  65:Core/Src/i2c.c ****     Error_Handler();
  66:Core/Src/i2c.c ****   }
  67:Core/Src/i2c.c ****   /* USER CODE BEGIN I2C1_Init 2 */
  68:Core/Src/i2c.c **** 
  69:Core/Src/i2c.c ****   /* USER CODE END I2C1_Init 2 */
  70:Core/Src/i2c.c **** 
  71:Core/Src/i2c.c **** }
  96              		.loc 1 71 1 view .LVU28
  97              		@ sp needed
  98 003e 10BD     		pop	{r4, pc}
  99              	.L5:
  51:Core/Src/i2c.c ****   }
 100              		.loc 1 51 5 is_stmt 1 view .LVU29
ARM GAS  /tmp/cca4GKR2.s 			page 4


 101 0040 FFF7FEFF 		bl	Error_Handler
 102              	.LVL3:
 103 0044 EFE7     		b	.L2
 104              	.L6:
  58:Core/Src/i2c.c ****   }
 105              		.loc 1 58 5 view .LVU30
 106 0046 FFF7FEFF 		bl	Error_Handler
 107              	.LVL4:
 108 004a F2E7     		b	.L3
 109              	.L7:
  65:Core/Src/i2c.c ****   }
 110              		.loc 1 65 5 view .LVU31
 111 004c FFF7FEFF 		bl	Error_Handler
 112              	.LVL5:
 113              		.loc 1 71 1 is_stmt 0 view .LVU32
 114 0050 F5E7     		b	.L1
 115              	.L9:
 116 0052 C046     		.align	2
 117              	.L8:
 118 0054 00000000 		.word	hi2c1
 119 0058 00540040 		.word	1073763328
 120 005c 2B1D2000 		.word	2104619
 121              		.cfi_endproc
 122              	.LFE40:
 124              		.section	.text.HAL_I2C_MspInit,"ax",%progbits
 125              		.align	1
 126              		.global	HAL_I2C_MspInit
 127              		.syntax unified
 128              		.code	16
 129              		.thumb_func
 131              	HAL_I2C_MspInit:
 132              	.LVL6:
 133              	.LFB41:
  72:Core/Src/i2c.c **** 
  73:Core/Src/i2c.c **** void HAL_I2C_MspInit(I2C_HandleTypeDef* i2cHandle)
  74:Core/Src/i2c.c **** {
 134              		.loc 1 74 1 is_stmt 1 view -0
 135              		.cfi_startproc
 136              		@ args = 0, pretend = 0, frame = 32
 137              		@ frame_needed = 0, uses_anonymous_args = 0
 138              		.loc 1 74 1 is_stmt 0 view .LVU34
 139 0000 F0B5     		push	{r4, r5, r6, r7, lr}
 140              	.LCFI1:
 141              		.cfi_def_cfa_offset 20
 142              		.cfi_offset 4, -20
 143              		.cfi_offset 5, -16
 144              		.cfi_offset 6, -12
 145              		.cfi_offset 7, -8
 146              		.cfi_offset 14, -4
 147 0002 89B0     		sub	sp, sp, #36
 148              	.LCFI2:
 149              		.cfi_def_cfa_offset 56
 150 0004 0400     		movs	r4, r0
  75:Core/Src/i2c.c **** 
  76:Core/Src/i2c.c ****   GPIO_InitTypeDef GPIO_InitStruct = {0};
 151              		.loc 1 76 3 is_stmt 1 view .LVU35
 152              		.loc 1 76 20 is_stmt 0 view .LVU36
ARM GAS  /tmp/cca4GKR2.s 			page 5


 153 0006 1422     		movs	r2, #20
 154 0008 0021     		movs	r1, #0
 155 000a 03A8     		add	r0, sp, #12
 156              	.LVL7:
 157              		.loc 1 76 20 view .LVU37
 158 000c FFF7FEFF 		bl	memset
 159              	.LVL8:
  77:Core/Src/i2c.c ****   if(i2cHandle->Instance==I2C1)
 160              		.loc 1 77 3 is_stmt 1 view .LVU38
 161              		.loc 1 77 15 is_stmt 0 view .LVU39
 162 0010 2268     		ldr	r2, [r4]
 163              		.loc 1 77 5 view .LVU40
 164 0012 1C4B     		ldr	r3, .L13
 165 0014 9A42     		cmp	r2, r3
 166 0016 01D0     		beq	.L12
 167              	.LVL9:
 168              	.L10:
  78:Core/Src/i2c.c ****   {
  79:Core/Src/i2c.c ****   /* USER CODE BEGIN I2C1_MspInit 0 */
  80:Core/Src/i2c.c **** 
  81:Core/Src/i2c.c ****   /* USER CODE END I2C1_MspInit 0 */
  82:Core/Src/i2c.c **** 
  83:Core/Src/i2c.c ****     __HAL_RCC_GPIOB_CLK_ENABLE();
  84:Core/Src/i2c.c ****     __HAL_RCC_GPIOF_CLK_ENABLE();
  85:Core/Src/i2c.c ****     /**I2C1 GPIO Configuration
  86:Core/Src/i2c.c ****     PB8     ------> I2C1_SCL
  87:Core/Src/i2c.c ****     PF0-OSC_IN     ------> I2C1_SDA
  88:Core/Src/i2c.c ****     */
  89:Core/Src/i2c.c ****     GPIO_InitStruct.Pin = I2C_SCL_DISPLAY_Pin;
  90:Core/Src/i2c.c ****     GPIO_InitStruct.Mode = GPIO_MODE_AF_OD;
  91:Core/Src/i2c.c ****     GPIO_InitStruct.Pull = GPIO_NOPULL;
  92:Core/Src/i2c.c ****     GPIO_InitStruct.Speed = GPIO_SPEED_FREQ_HIGH;
  93:Core/Src/i2c.c ****     GPIO_InitStruct.Alternate = GPIO_AF1_I2C1;
  94:Core/Src/i2c.c ****     HAL_GPIO_Init(I2C_SCL_DISPLAY_GPIO_Port, &GPIO_InitStruct);
  95:Core/Src/i2c.c **** 
  96:Core/Src/i2c.c ****     GPIO_InitStruct.Pin = I2C_SDA_DISPLAY_Pin;
  97:Core/Src/i2c.c ****     GPIO_InitStruct.Mode = GPIO_MODE_AF_OD;
  98:Core/Src/i2c.c ****     GPIO_InitStruct.Pull = GPIO_NOPULL;
  99:Core/Src/i2c.c ****     GPIO_InitStruct.Speed = GPIO_SPEED_FREQ_HIGH;
 100:Core/Src/i2c.c ****     GPIO_InitStruct.Alternate = GPIO_AF1_I2C1;
 101:Core/Src/i2c.c ****     HAL_GPIO_Init(I2C_SDA_DISPLAY_GPIO_Port, &GPIO_InitStruct);
 102:Core/Src/i2c.c **** 
 103:Core/Src/i2c.c ****     /* I2C1 clock enable */
 104:Core/Src/i2c.c ****     __HAL_RCC_I2C1_CLK_ENABLE();
 105:Core/Src/i2c.c ****   /* USER CODE BEGIN I2C1_MspInit 1 */
 106:Core/Src/i2c.c **** 
 107:Core/Src/i2c.c ****   /* USER CODE END I2C1_MspInit 1 */
 108:Core/Src/i2c.c ****   }
 109:Core/Src/i2c.c **** }
 169              		.loc 1 109 1 view .LVU41
 170 0018 09B0     		add	sp, sp, #36
 171              		@ sp needed
 172 001a F0BD     		pop	{r4, r5, r6, r7, pc}
 173              	.LVL10:
 174              	.L12:
  83:Core/Src/i2c.c ****     __HAL_RCC_GPIOF_CLK_ENABLE();
 175              		.loc 1 83 5 is_stmt 1 view .LVU42
ARM GAS  /tmp/cca4GKR2.s 			page 6


 176              	.LBB2:
  83:Core/Src/i2c.c ****     __HAL_RCC_GPIOF_CLK_ENABLE();
 177              		.loc 1 83 5 view .LVU43
  83:Core/Src/i2c.c ****     __HAL_RCC_GPIOF_CLK_ENABLE();
 178              		.loc 1 83 5 view .LVU44
 179 001c 1A4C     		ldr	r4, .L13+4
 180              	.LVL11:
  83:Core/Src/i2c.c ****     __HAL_RCC_GPIOF_CLK_ENABLE();
 181              		.loc 1 83 5 is_stmt 0 view .LVU45
 182 001e 6369     		ldr	r3, [r4, #20]
 183 0020 8022     		movs	r2, #128
 184 0022 D202     		lsls	r2, r2, #11
 185 0024 1343     		orrs	r3, r2
 186 0026 6361     		str	r3, [r4, #20]
  83:Core/Src/i2c.c ****     __HAL_RCC_GPIOF_CLK_ENABLE();
 187              		.loc 1 83 5 is_stmt 1 view .LVU46
 188 0028 6369     		ldr	r3, [r4, #20]
 189 002a 1340     		ands	r3, r2
 190 002c 0093     		str	r3, [sp]
  83:Core/Src/i2c.c ****     __HAL_RCC_GPIOF_CLK_ENABLE();
 191              		.loc 1 83 5 view .LVU47
 192 002e 009B     		ldr	r3, [sp]
 193              	.LBE2:
  83:Core/Src/i2c.c ****     __HAL_RCC_GPIOF_CLK_ENABLE();
 194              		.loc 1 83 5 view .LVU48
  84:Core/Src/i2c.c ****     /**I2C1 GPIO Configuration
 195              		.loc 1 84 5 view .LVU49
 196              	.LBB3:
  84:Core/Src/i2c.c ****     /**I2C1 GPIO Configuration
 197              		.loc 1 84 5 view .LVU50
  84:Core/Src/i2c.c ****     /**I2C1 GPIO Configuration
 198              		.loc 1 84 5 view .LVU51
 199 0030 6369     		ldr	r3, [r4, #20]
 200 0032 8022     		movs	r2, #128
 201 0034 D203     		lsls	r2, r2, #15
 202 0036 1343     		orrs	r3, r2
 203 0038 6361     		str	r3, [r4, #20]
  84:Core/Src/i2c.c ****     /**I2C1 GPIO Configuration
 204              		.loc 1 84 5 view .LVU52
 205 003a 6369     		ldr	r3, [r4, #20]
 206 003c 1340     		ands	r3, r2
 207 003e 0193     		str	r3, [sp, #4]
  84:Core/Src/i2c.c ****     /**I2C1 GPIO Configuration
 208              		.loc 1 84 5 view .LVU53
 209 0040 019B     		ldr	r3, [sp, #4]
 210              	.LBE3:
  84:Core/Src/i2c.c ****     /**I2C1 GPIO Configuration
 211              		.loc 1 84 5 view .LVU54
  89:Core/Src/i2c.c ****     GPIO_InitStruct.Mode = GPIO_MODE_AF_OD;
 212              		.loc 1 89 5 view .LVU55
  89:Core/Src/i2c.c ****     GPIO_InitStruct.Mode = GPIO_MODE_AF_OD;
 213              		.loc 1 89 25 is_stmt 0 view .LVU56
 214 0042 8023     		movs	r3, #128
 215 0044 5B00     		lsls	r3, r3, #1
 216 0046 0393     		str	r3, [sp, #12]
  90:Core/Src/i2c.c ****     GPIO_InitStruct.Pull = GPIO_NOPULL;
 217              		.loc 1 90 5 is_stmt 1 view .LVU57
ARM GAS  /tmp/cca4GKR2.s 			page 7


  90:Core/Src/i2c.c ****     GPIO_InitStruct.Pull = GPIO_NOPULL;
 218              		.loc 1 90 26 is_stmt 0 view .LVU58
 219 0048 1227     		movs	r7, #18
 220 004a 0497     		str	r7, [sp, #16]
  91:Core/Src/i2c.c ****     GPIO_InitStruct.Speed = GPIO_SPEED_FREQ_HIGH;
 221              		.loc 1 91 5 is_stmt 1 view .LVU59
  92:Core/Src/i2c.c ****     GPIO_InitStruct.Alternate = GPIO_AF1_I2C1;
 222              		.loc 1 92 5 view .LVU60
  92:Core/Src/i2c.c ****     GPIO_InitStruct.Alternate = GPIO_AF1_I2C1;
 223              		.loc 1 92 27 is_stmt 0 view .LVU61
 224 004c 0326     		movs	r6, #3
 225 004e 0696     		str	r6, [sp, #24]
  93:Core/Src/i2c.c ****     HAL_GPIO_Init(I2C_SCL_DISPLAY_GPIO_Port, &GPIO_InitStruct);
 226              		.loc 1 93 5 is_stmt 1 view .LVU62
  93:Core/Src/i2c.c ****     HAL_GPIO_Init(I2C_SCL_DISPLAY_GPIO_Port, &GPIO_InitStruct);
 227              		.loc 1 93 31 is_stmt 0 view .LVU63
 228 0050 0125     		movs	r5, #1
 229 0052 0795     		str	r5, [sp, #28]
  94:Core/Src/i2c.c **** 
 230              		.loc 1 94 5 is_stmt 1 view .LVU64
 231 0054 03A9     		add	r1, sp, #12
 232 0056 0D48     		ldr	r0, .L13+8
 233 0058 FFF7FEFF 		bl	HAL_GPIO_Init
 234              	.LVL12:
  96:Core/Src/i2c.c ****     GPIO_InitStruct.Mode = GPIO_MODE_AF_OD;
 235              		.loc 1 96 5 view .LVU65
  96:Core/Src/i2c.c ****     GPIO_InitStruct.Mode = GPIO_MODE_AF_OD;
 236              		.loc 1 96 25 is_stmt 0 view .LVU66
 237 005c 0395     		str	r5, [sp, #12]
  97:Core/Src/i2c.c ****     GPIO_InitStruct.Pull = GPIO_NOPULL;
 238              		.loc 1 97 5 is_stmt 1 view .LVU67
  97:Core/Src/i2c.c ****     GPIO_InitStruct.Pull = GPIO_NOPULL;
 239              		.loc 1 97 26 is_stmt 0 view .LVU68
 240 005e 0497     		str	r7, [sp, #16]
  98:Core/Src/i2c.c ****     GPIO_InitStruct.Speed = GPIO_SPEED_FREQ_HIGH;
 241              		.loc 1 98 5 is_stmt 1 view .LVU69
  98:Core/Src/i2c.c ****     GPIO_InitStruct.Speed = GPIO_SPEED_FREQ_HIGH;
 242              		.loc 1 98 26 is_stmt 0 view .LVU70
 243 0060 0023     		movs	r3, #0
 244 0062 0593     		str	r3, [sp, #20]
  99:Core/Src/i2c.c ****     GPIO_InitStruct.Alternate = GPIO_AF1_I2C1;
 245              		.loc 1 99 5 is_stmt 1 view .LVU71
  99:Core/Src/i2c.c ****     GPIO_InitStruct.Alternate = GPIO_AF1_I2C1;
 246              		.loc 1 99 27 is_stmt 0 view .LVU72
 247 0064 0696     		str	r6, [sp, #24]
 100:Core/Src/i2c.c ****     HAL_GPIO_Init(I2C_SDA_DISPLAY_GPIO_Port, &GPIO_InitStruct);
 248              		.loc 1 100 5 is_stmt 1 view .LVU73
 100:Core/Src/i2c.c ****     HAL_GPIO_Init(I2C_SDA_DISPLAY_GPIO_Port, &GPIO_InitStruct);
 249              		.loc 1 100 31 is_stmt 0 view .LVU74
 250 0066 0795     		str	r5, [sp, #28]
 101:Core/Src/i2c.c **** 
 251              		.loc 1 101 5 is_stmt 1 view .LVU75
 252 0068 03A9     		add	r1, sp, #12
 253 006a 0948     		ldr	r0, .L13+12
 254 006c FFF7FEFF 		bl	HAL_GPIO_Init
 255              	.LVL13:
 104:Core/Src/i2c.c ****   /* USER CODE BEGIN I2C1_MspInit 1 */
ARM GAS  /tmp/cca4GKR2.s 			page 8


 256              		.loc 1 104 5 view .LVU76
 257              	.LBB4:
 104:Core/Src/i2c.c ****   /* USER CODE BEGIN I2C1_MspInit 1 */
 258              		.loc 1 104 5 view .LVU77
 104:Core/Src/i2c.c ****   /* USER CODE BEGIN I2C1_MspInit 1 */
 259              		.loc 1 104 5 view .LVU78
 260 0070 E369     		ldr	r3, [r4, #28]
 261 0072 8022     		movs	r2, #128
 262 0074 9203     		lsls	r2, r2, #14
 263 0076 1343     		orrs	r3, r2
 264 0078 E361     		str	r3, [r4, #28]
 104:Core/Src/i2c.c ****   /* USER CODE BEGIN I2C1_MspInit 1 */
 265              		.loc 1 104 5 view .LVU79
 266 007a E369     		ldr	r3, [r4, #28]
 267 007c 1340     		ands	r3, r2
 268 007e 0293     		str	r3, [sp, #8]
 104:Core/Src/i2c.c ****   /* USER CODE BEGIN I2C1_MspInit 1 */
 269              		.loc 1 104 5 view .LVU80
 270 0080 029B     		ldr	r3, [sp, #8]
 271              	.LBE4:
 104:Core/Src/i2c.c ****   /* USER CODE BEGIN I2C1_MspInit 1 */
 272              		.loc 1 104 5 discriminator 1 view .LVU81
 273              		.loc 1 109 1 is_stmt 0 view .LVU82
 274 0082 C9E7     		b	.L10
 275              	.L14:
 276              		.align	2
 277              	.L13:
 278 0084 00540040 		.word	1073763328
 279 0088 00100240 		.word	1073876992
 280 008c 00040048 		.word	1207960576
 281 0090 00140048 		.word	1207964672
 282              		.cfi_endproc
 283              	.LFE41:
 285              		.section	.text.HAL_I2C_MspDeInit,"ax",%progbits
 286              		.align	1
 287              		.global	HAL_I2C_MspDeInit
 288              		.syntax unified
 289              		.code	16
 290              		.thumb_func
 292              	HAL_I2C_MspDeInit:
 293              	.LVL14:
 294              	.LFB42:
 110:Core/Src/i2c.c **** 
 111:Core/Src/i2c.c **** void HAL_I2C_MspDeInit(I2C_HandleTypeDef* i2cHandle)
 112:Core/Src/i2c.c **** {
 295              		.loc 1 112 1 is_stmt 1 view -0
 296              		.cfi_startproc
 297              		@ args = 0, pretend = 0, frame = 0
 298              		@ frame_needed = 0, uses_anonymous_args = 0
 299              		.loc 1 112 1 is_stmt 0 view .LVU84
 300 0000 10B5     		push	{r4, lr}
 301              	.LCFI3:
 302              		.cfi_def_cfa_offset 8
 303              		.cfi_offset 4, -8
 304              		.cfi_offset 14, -4
 113:Core/Src/i2c.c **** 
 114:Core/Src/i2c.c ****   if(i2cHandle->Instance==I2C1)
ARM GAS  /tmp/cca4GKR2.s 			page 9


 305              		.loc 1 114 3 is_stmt 1 view .LVU85
 306              		.loc 1 114 15 is_stmt 0 view .LVU86
 307 0002 0268     		ldr	r2, [r0]
 308              		.loc 1 114 5 view .LVU87
 309 0004 094B     		ldr	r3, .L18
 310 0006 9A42     		cmp	r2, r3
 311 0008 00D0     		beq	.L17
 312              	.LVL15:
 313              	.L15:
 115:Core/Src/i2c.c ****   {
 116:Core/Src/i2c.c ****   /* USER CODE BEGIN I2C1_MspDeInit 0 */
 117:Core/Src/i2c.c **** 
 118:Core/Src/i2c.c ****   /* USER CODE END I2C1_MspDeInit 0 */
 119:Core/Src/i2c.c ****     /* Peripheral clock disable */
 120:Core/Src/i2c.c ****     __HAL_RCC_I2C1_CLK_DISABLE();
 121:Core/Src/i2c.c **** 
 122:Core/Src/i2c.c ****     /**I2C1 GPIO Configuration
 123:Core/Src/i2c.c ****     PB8     ------> I2C1_SCL
 124:Core/Src/i2c.c ****     PF0-OSC_IN     ------> I2C1_SDA
 125:Core/Src/i2c.c ****     */
 126:Core/Src/i2c.c ****     HAL_GPIO_DeInit(I2C_SCL_DISPLAY_GPIO_Port, I2C_SCL_DISPLAY_Pin);
 127:Core/Src/i2c.c **** 
 128:Core/Src/i2c.c ****     HAL_GPIO_DeInit(I2C_SDA_DISPLAY_GPIO_Port, I2C_SDA_DISPLAY_Pin);
 129:Core/Src/i2c.c **** 
 130:Core/Src/i2c.c ****   /* USER CODE BEGIN I2C1_MspDeInit 1 */
 131:Core/Src/i2c.c **** 
 132:Core/Src/i2c.c ****   /* USER CODE END I2C1_MspDeInit 1 */
 133:Core/Src/i2c.c ****   }
 134:Core/Src/i2c.c **** }
 314              		.loc 1 134 1 view .LVU88
 315              		@ sp needed
 316 000a 10BD     		pop	{r4, pc}
 317              	.LVL16:
 318              	.L17:
 120:Core/Src/i2c.c **** 
 319              		.loc 1 120 5 is_stmt 1 view .LVU89
 320 000c 084A     		ldr	r2, .L18+4
 321 000e D369     		ldr	r3, [r2, #28]
 322 0010 0849     		ldr	r1, .L18+8
 323 0012 0B40     		ands	r3, r1
 324 0014 D361     		str	r3, [r2, #28]
 126:Core/Src/i2c.c **** 
 325              		.loc 1 126 5 view .LVU90
 326 0016 8021     		movs	r1, #128
 327 0018 4900     		lsls	r1, r1, #1
 328 001a 0748     		ldr	r0, .L18+12
 329              	.LVL17:
 126:Core/Src/i2c.c **** 
 330              		.loc 1 126 5 is_stmt 0 view .LVU91
 331 001c FFF7FEFF 		bl	HAL_GPIO_DeInit
 332              	.LVL18:
 128:Core/Src/i2c.c **** 
 333              		.loc 1 128 5 is_stmt 1 view .LVU92
 334 0020 0121     		movs	r1, #1
 335 0022 0648     		ldr	r0, .L18+16
 336 0024 FFF7FEFF 		bl	HAL_GPIO_DeInit
 337              	.LVL19:
ARM GAS  /tmp/cca4GKR2.s 			page 10


 338              		.loc 1 134 1 is_stmt 0 view .LVU93
 339 0028 EFE7     		b	.L15
 340              	.L19:
 341 002a C046     		.align	2
 342              	.L18:
 343 002c 00540040 		.word	1073763328
 344 0030 00100240 		.word	1073876992
 345 0034 FFFFDFFF 		.word	-2097153
 346 0038 00040048 		.word	1207960576
 347 003c 00140048 		.word	1207964672
 348              		.cfi_endproc
 349              	.LFE42:
 351              		.global	hi2c1
 352              		.section	.bss.hi2c1,"aw",%nobits
 353              		.align	2
 356              	hi2c1:
 357 0000 00000000 		.space	84
 357      00000000 
 357      00000000 
 357      00000000 
 357      00000000 
 358              		.text
 359              	.Letext0:
 360              		.file 2 "/usr/lib/gcc/arm-none-eabi/13.3.1/include/stdint.h"
 361              		.file 3 "Drivers/CMSIS/Device/ST/STM32F0xx/Include/stm32f042x6.h"
 362              		.file 4 "Drivers/STM32F0xx_HAL_Driver/Inc/stm32f0xx_hal_def.h"
 363              		.file 5 "Drivers/STM32F0xx_HAL_Driver/Inc/stm32f0xx_hal_gpio.h"
 364              		.file 6 "Drivers/STM32F0xx_HAL_Driver/Inc/stm32f0xx_hal_dma.h"
 365              		.file 7 "Drivers/STM32F0xx_HAL_Driver/Inc/stm32f0xx_hal_i2c.h"
 366              		.file 8 "Drivers/STM32F0xx_HAL_Driver/Inc/stm32f0xx_hal_i2c_ex.h"
 367              		.file 9 "Core/Inc/i2c.h"
 368              		.file 10 "Core/Inc/main.h"
 369              		.file 11 "<built-in>"
ARM GAS  /tmp/cca4GKR2.s 			page 11

